target datalayout = "e-m:e-p270:32:32-p271:32:32-p272:64:64-i64:64-i128:128-f80:128-n8:16:32:64-S128"
target triple = "x86_64-pc-linux-gnu"

%struct.darktable_t = type { %struct.dt_codepath_t, i32, i32, ptr, ptr, ptr, ptr, ptr, ptr, ptr, ptr, ptr, ptr, ptr, ptr, ptr, ptr, ptr, ptr, ptr, ptr, ptr, ptr, ptr, ptr, ptr, ptr, ptr, ptr, ptr, [64 x %struct.dt_pthread_mutex_t], %struct.dt_pthread_mutex_t, %struct.dt_pthread_mutex_t, %struct.dt_pthread_mutex_t, %struct.dt_pthread_mutex_t, %struct.dt_pthread_mutex_t, ptr, ptr, ptr, ptr, ptr, ptr, ptr, ptr, ptr, ptr, ptr, ptr, ptr, %struct.dt_lua_state_t, ptr, double, ptr, i32, [47 x i32], i32, i32, ptr, ptr, %struct.dt_sys_resources_t, %struct.dt_backthumb_t, %struct.dt_gimp_t }
%struct.dt_codepath_t = type { i8, [3 x i8] }
%struct.dt_pthread_mutex_t = type { %union.pthread_mutex_t }
%union.pthread_mutex_t = type { %struct.__pthread_mutex_s }
%struct.__pthread_mutex_s = type { i32, i32, i32, i32, i32, i16, i16, %struct.__pthread_internal_list }
%struct.__pthread_internal_list = type { ptr, ptr }
%struct.dt_lua_state_t = type { i32 }
%struct.dt_sys_resources_t = type { i64, i64, ptr, ptr, i32 }
%struct.dt_backthumb_t = type { double, double, i32, i32, i32, i32 }
%struct.dt_gimp_t = type { i32, ptr, ptr, i32, i32 }
%struct._GError = type { i32, i32, ptr }

@darktable = external global %struct.darktable_t, align 8
@.str.33 = private unnamed_addr constant [55 x i8] c"[pwstorage_kwallet] ERROR: Error converting string: %s\00", align 1

; Function Attrs: nounwind uwtable
define internal ptr @array2string(ptr noundef %0, ptr noundef %1) #0 {
  %3 = alloca ptr, align 8
  %4 = alloca ptr, align 8
  %5 = alloca ptr, align 8
  %6 = alloca i32, align 4
  %7 = alloca i32, align 4
  %8 = alloca i32, align 4
  %9 = alloca i32, align 4
  %10 = alloca ptr, align 8
  %11 = alloca i64, align 8
  %12 = alloca i64, align 8
  %13 = alloca ptr, align 8
  %14 = alloca ptr, align 8
  %15 = alloca i32, align 4
  store ptr %0, ptr %4, align 8, !tbaa !59
  store ptr %1, ptr %5, align 8, !tbaa !83
  %16 = load ptr, ptr %5, align 8, !tbaa !83
  %17 = load ptr, ptr %4, align 8, !tbaa !59
  call void @llvm.memcpy.p0.p0.i64(ptr align 4 %16, ptr align 1 %17, i64 4, i1 false)
  call void @llvm.lifetime.start.p0(i64 4, ptr %6) #8
  call void @llvm.lifetime.start.p0(i64 4, ptr %7) #8
  %18 = load ptr, ptr %5, align 8, !tbaa !83
  %19 = load i32, ptr %18, align 4, !tbaa !62
  store i32 %19, ptr %7, align 4, !tbaa !62
  %20 = load i32, ptr %7, align 4, !tbaa !62
  %21 = call i1 @llvm.is.constant.i32(i32 %20)
  br i1 %21, label %22, label %38

22:                                               ; preds = %2
  %23 = load i32, ptr %7, align 4, !tbaa !62
  %24 = and i32 %23, 255
  %25 = shl i32 %24, 24
  %26 = load i32, ptr %7, align 4, !tbaa !62
  %27 = and i32 %26, 65280
  %28 = shl i32 %27, 8
  %29 = or i32 %25, %28
  %30 = load i32, ptr %7, align 4, !tbaa !62
  %31 = and i32 %30, 16711680
  %32 = lshr i32 %31, 8
  %33 = or i32 %29, %32
  %34 = load i32, ptr %7, align 4, !tbaa !62
  %35 = and i32 %34, -16777216
  %36 = lshr i32 %35, 24
  %37 = or i32 %33, %36
  store i32 %37, ptr %6, align 4, !tbaa !62
  br label %41

38:                                               ; preds = %2
  %39 = load i32, ptr %7, align 4, !tbaa !62
  %40 = call i32 asm "bswapl $0", "=r,0,~{dirflag},~{fpsr},~{flags}"(i32 %39) #10, !srcloc !84
  store i32 %40, ptr %6, align 4, !tbaa !62
  br label %41

41:                                               ; preds = %38, %22
  %42 = load i32, ptr %6, align 4, !tbaa !62
  store i32 %42, ptr %8, align 4, !tbaa !62
  call void @llvm.lifetime.end.p0(i64 4, ptr %7) #8
  call void @llvm.lifetime.end.p0(i64 4, ptr %6) #8
  %43 = load i32, ptr %8, align 4, !tbaa !62
  %44 = load ptr, ptr %5, align 8, !tbaa !83
  store i32 %43, ptr %44, align 4, !tbaa !62
  %45 = load ptr, ptr %4, align 8, !tbaa !59
  %46 = getelementptr inbounds nuw i8, ptr %45, i64 4
  store ptr %46, ptr %4, align 8, !tbaa !59
  call void @llvm.lifetime.start.p0(i64 4, ptr %9) #8
  call void @llvm.lifetime.start.p0(i64 8, ptr %10) #8
  %47 = load ptr, ptr %5, align 8, !tbaa !83
  %48 = load i32, ptr %47, align 4, !tbaa !62
  %49 = zext i32 %48 to i64
  %50 = call noalias ptr @malloc(i64 noundef %49) #11
  store ptr %50, ptr %10, align 8, !tbaa !77
  %51 = load ptr, ptr %10, align 8, !tbaa !77
  %52 = load ptr, ptr %4, align 8, !tbaa !59
  %53 = load ptr, ptr %5, align 8, !tbaa !83
  %54 = load i32, ptr %53, align 4, !tbaa !62
  %55 = zext i32 %54 to i64
  call void @llvm.memcpy.p0.p0.i64(ptr align 2 %51, ptr align 1 %52, i64 %55, i1 false)
  store i32 0, ptr %9, align 4, !tbaa !62
  br label %56

56:                                               ; preds = %89, %41
  %57 = load i32, ptr %9, align 4, !tbaa !62
  %58 = zext i32 %57 to i64
  %59 = load ptr, ptr %5, align 8, !tbaa !83
  %60 = load i32, ptr %59, align 4, !tbaa !62
  %61 = zext i32 %60 to i64
  %62 = udiv i64 %61, 2
  %63 = icmp ult i64 %58, %62
  br i1 %63, label %64, label %92

64:                                               ; preds = %56
  %65 = load ptr, ptr %10, align 8, !tbaa !77
  %66 = load i32, ptr %9, align 4, !tbaa !62
  %67 = zext i32 %66 to i64
  %68 = getelementptr inbounds nuw i16, ptr %65, i64 %67
  %69 = load i16, ptr %68, align 2, !tbaa !79
  %70 = zext i16 %69 to i32
  %71 = ashr i32 %70, 8
  %72 = trunc i32 %71 to i16
  %73 = zext i16 %72 to i32
  %74 = load ptr, ptr %10, align 8, !tbaa !77
  %75 = load i32, ptr %9, align 4, !tbaa !62
  %76 = zext i32 %75 to i64
  %77 = getelementptr inbounds nuw i16, ptr %74, i64 %76
  %78 = load i16, ptr %77, align 2, !tbaa !79
  %79 = zext i16 %78 to i32
  %80 = shl i32 %79, 8
  %81 = trunc i32 %80 to i16
  %82 = zext i16 %81 to i32
  %83 = or i32 %73, %82
  %84 = trunc i32 %83 to i16
  %85 = load ptr, ptr %10, align 8, !tbaa !77
  %86 = load i32, ptr %9, align 4, !tbaa !62
  %87 = zext i32 %86 to i64
  %88 = getelementptr inbounds nuw i16, ptr %85, i64 %87
  store i16 %84, ptr %88, align 2, !tbaa !79
  br label %89

89:                                               ; preds = %64
  %90 = load i32, ptr %9, align 4, !tbaa !62
  %91 = add i32 %90, 1
  store i32 %91, ptr %9, align 4, !tbaa !62
  br label %56

92:                                               ; preds = %56
  call void @llvm.lifetime.start.p0(i64 8, ptr %11) #8
  call void @llvm.lifetime.start.p0(i64 8, ptr %12) #8
  call void @llvm.lifetime.start.p0(i64 8, ptr %13) #8
  store ptr null, ptr %13, align 8, !tbaa !11
  call void @llvm.lifetime.start.p0(i64 8, ptr %14) #8
  %93 = load ptr, ptr %10, align 8, !tbaa !77
  %94 = load ptr, ptr %5, align 8, !tbaa !83
  %95 = load i32, ptr %94, align 4, !tbaa !62
  %96 = zext i32 %95 to i64
  %97 = udiv i64 %96, 2
  %98 = call noalias ptr @g_utf16_to_utf8(ptr noundef %93, i64 noundef %97, ptr noundef %11, ptr noundef %12, ptr noundef %13)
  store ptr %98, ptr %14, align 8, !tbaa !59
  %99 = load ptr, ptr %10, align 8, !tbaa !77
  call void @free(ptr noundef %99) #8
  %100 = load ptr, ptr %13, align 8, !tbaa !11
  %101 = icmp ne ptr %100, null
  br i1 %101, label %102, label %120

102:                                              ; preds = %92
  br label %103

103:                                              ; preds = %102
  %104 = load i32, ptr getelementptr inbounds nuw (%struct.darktable_t, ptr @darktable, i32 0, i32 2), align 8, !tbaa !18
  %105 = and i32 64, %104
  %106 = icmp ne i32 %105, 0
  br i1 %106, label %107, label %116

107:                                              ; preds = %103
  %108 = load i32, ptr getelementptr inbounds nuw (%struct.darktable_t, ptr @darktable, i32 0, i32 2), align 8, !tbaa !18
  %109 = xor i32 %108, -1
  %110 = and i32 0, %109
  %111 = icmp ne i32 %110, 0
  br i1 %111, label %116, label %112

112:                                              ; preds = %107
  %113 = load ptr, ptr %13, align 8, !tbaa !11
  %114 = getelementptr inbounds nuw %struct._GError, ptr %113, i32 0, i32 2
  %115 = load ptr, ptr %114, align 8, !tbaa !56
  call void (ptr, ...) @dt_print_ext(ptr noundef @.str.33, ptr noundef %115)
  br label %116

116:                                              ; preds = %112, %107, %103
  br label %117

117:                                              ; preds = %116
  br label %118

118:                                              ; preds = %117
  %119 = load ptr, ptr %13, align 8, !tbaa !11
  call void @g_error_free(ptr noundef %119)
  store ptr null, ptr %3, align 8
  store i32 1, ptr %15, align 4
  br label %127

120:                                              ; preds = %92
  %121 = load ptr, ptr %5, align 8, !tbaa !83
  %122 = load i32, ptr %121, align 4, !tbaa !62
  %123 = zext i32 %122 to i64
  %124 = add i64 %123, 4
  %125 = trunc i64 %124 to i32
  store i32 %125, ptr %121, align 4, !tbaa !62
  %126 = load ptr, ptr %14, align 8, !tbaa !59
  store ptr %126, ptr %3, align 8
  store i32 1, ptr %15, align 4
  br label %127

127:                                              ; preds = %120, %118
  call void @llvm.lifetime.end.p0(i64 8, ptr %14) #8
  call void @llvm.lifetime.end.p0(i64 8, ptr %13) #8
  call void @llvm.lifetime.end.p0(i64 8, ptr %12) #8
  call void @llvm.lifetime.end.p0(i64 8, ptr %11) #8
  call void @llvm.lifetime.end.p0(i64 8, ptr %10) #8
  call void @llvm.lifetime.end.p0(i64 4, ptr %9) #8
  %128 = load ptr, ptr %3, align 8
  ret ptr %128
}