; Function Attrs: nounwind uwtable
define internal fastcc ptr @array2string(ptr noundef nonnull readonly captures(none) %0, ptr noundef nonnull captures(none) initializes((0, 4)) %1) unnamed_addr #0 {
  %3 = alloca i64, align 8
  %4 = alloca i64, align 8
  %5 = alloca ptr, align 8
  %6 = load i32, ptr %0, align 1
  %7 = tail call i32 asm "bswapl $0", "=r,0,~{dirflag},~{fpsr},~{flags}"(i32 %6) #11, !srcloc !72
  store i32 %7, ptr %1, align 4, !tbaa !60
  %8 = getelementptr inbounds nuw i8, ptr %0, i64 4
  %9 = zext i32 %7 to i64
  %10 = tail call noalias ptr @malloc(i64 noundef %9) #9
  tail call void @llvm.memcpy.p0.p0.i64(ptr align 2 %10, ptr nonnull align 1 %8, i64 %9, i1 false)
  %11 = lshr i32 %7, 1
  %.not37 = icmp ult i32 %7, 2
  %.pre39 = zext nneg i32 %11 to i64
  br i1 %.not37, label %._crit_edge, label %.lr.ph

.lr.ph:                                           ; preds = %2, %.lr.ph
  %indvars.iv = phi i64 [ %indvars.iv.next, %.lr.ph ], [ 0, %2 ]
  %12 = getelementptr inbounds nuw i16, ptr %10, i64 %indvars.iv
  %13 = load i16, ptr %12, align 2, !tbaa !66
  %rev = tail call i16 @llvm.bswap.i16(i16 %13)
  store i16 %rev, ptr %12, align 2, !tbaa !66
  %indvars.iv.next = add nuw nsw i64 %indvars.iv, 1
  %exitcond.not = icmp eq i64 %indvars.iv.next, %.pre39
  br i1 %exitcond.not, label %._crit_edge, label %.lr.ph

._crit_edge:                                      ; preds = %.lr.ph, %2
  call void @llvm.lifetime.start.p0(i64 8, ptr nonnull %3) #10
  call void @llvm.lifetime.start.p0(i64 8, ptr nonnull %4) #10
  call void @llvm.lifetime.start.p0(i64 8, ptr nonnull %5) #10
  store ptr null, ptr %5, align 8, !tbaa !6
  %14 = call noalias ptr @g_utf16_to_utf8(ptr noundef %10, i64 noundef %.pre39, ptr noundef nonnull %3, ptr noundef nonnull %4, ptr noundef nonnull %5) #10
  call void @free(ptr noundef %10) #10
  %15 = load ptr, ptr %5, align 8, !tbaa !6
  %.not = icmp eq ptr %15, null
  br i1 %.not, label %24, label %16

16:                                               ; preds = %._crit_edge
  %17 = load i32, ptr getelementptr inbounds nuw (i8, ptr @darktable, i64 8), align 8, !tbaa !16
  %18 = and i32 %17, 64
  %.not35 = icmp eq i32 %18, 0
  br i1 %.not35, label %22, label %19

19:                                               ; preds = %16
  %20 = getelementptr inbounds nuw i8, ptr %15, i64 8
  %21 = load ptr, ptr %20, align 8, !tbaa !54
  call void (ptr, ...) @dt_print_ext(ptr noundef nonnull @.str.33, ptr noundef %21) #10
  %.pre = load ptr, ptr %5, align 8, !tbaa !6
  br label %22

22:                                               ; preds = %19, %16
  %23 = phi ptr [ %.pre, %19 ], [ %15, %16 ]
  call void @g_error_free(ptr noundef %23) #10
  br label %27

24:                                               ; preds = %._crit_edge
  %25 = load i32, ptr %1, align 4, !tbaa !60
  %26 = add i32 %25, 4
  store i32 %26, ptr %1, align 4, !tbaa !60
  br label %27

27:                                               ; preds = %24, %22
  %.0 = phi ptr [ null, %22 ], [ %14, %24 ]
  call void @llvm.lifetime.end.p0(i64 8, ptr nonnull %5) #10
  call void @llvm.lifetime.end.p0(i64 8, ptr nonnull %4) #10
  call void @llvm.lifetime.end.p0(i64 8, ptr nonnull %3) #10
  ret ptr %.0
}